target datalayout = "e-m:e-p270:32:32-p271:32:32-p272:64:64-i64:64-i128:128-f80:128-n8:16:32:64-S128"
target triple = "x86_64-unknown-linux-gnu"

%struct.PtyChardev = type { %struct.Chardev, ptr, i32, i32, ptr }
%struct.Chardev = type { %struct.Object, %struct.QemuMutex, ptr, ptr, ptr, i32, i32, i8, ptr, ptr, [1 x i64] }
%struct.Object = type { ptr, ptr, ptr, i32, ptr }
%struct.QemuMutex = type { %union.pthread_mutex_t, i8 }
%union.pthread_mutex_t = type { %struct.__pthread_mutex_s }
%struct.__pthread_mutex_s = type { i32, i32, i32, i32, i32, i16, i16, %struct.__pthread_internal_list }
%struct.__pthread_internal_list = type { ptr, ptr }
%struct._GPollFD = type { i32, i16, i16 }
%struct.QIOChannelFile = type { %struct.QIOChannel, i32 }
%struct.QIOChannel = type { %struct.Object, i32, ptr, ptr, ptr, ptr, ptr, i8 }

@.str = private unnamed_addr constant [12 x i8] c"chardev-pty\00", align 1
@.str.3 = private unnamed_addr constant [27 x i8] c"../qemu/chardev/char-pty.c\00", align 1
@__func__.PTY_CHARDEV = private unnamed_addr constant [12 x i8] c"PTY_CHARDEV\00", align 1
@.str.12 = private unnamed_addr constant [8 x i8] c"rc >= 0\00", align 1
@.str.13 = private unnamed_addr constant [17 x i8] c"qio-channel-file\00", align 1
@.str.14 = private unnamed_addr constant [104 x i8] c"/home/dtcxzyw/WorkSpace/Projects/compilers/llvm-opt-benchmark/bench/qemu/qemu/include/io/channel-file.h\00", align 1
@__func__.QIO_CHANNEL_FILE = private unnamed_addr constant [17 x i8] c"QIO_CHANNEL_FILE\00", align 1
@__PRETTY_FUNCTION__.pty_chr_update_read_handler = private unnamed_addr constant [44 x i8] c"void pty_chr_update_read_handler(Chardev *)\00", align 1

; Function Attrs: nounwind sspstrong uwtable
define internal ptr @QIO_CHANNEL_FILE(ptr noundef %obj) #0 {
entry:
  %obj.addr = alloca ptr, align 8
  store ptr %obj, ptr %obj.addr, align 8
  %0 = load ptr, ptr %obj.addr, align 8
  %call = call ptr @object_dynamic_cast_assert(ptr noundef %0, ptr noundef @.str.13, ptr noundef @.str.14, i32 noundef 28, ptr noundef @__func__.QIO_CHANNEL_FILE)
  ret ptr %call
}

; Function Attrs: nounwind sspstrong uwtable
define internal ptr @PTY_CHARDEV(ptr noundef %obj) #0 {
entry:
  %obj.addr = alloca ptr, align 8
  store ptr %obj, ptr %obj.addr, align 8
  %0 = load ptr, ptr %obj.addr, align 8
  %call = call ptr @object_dynamic_cast_assert(ptr noundef %0, ptr noundef @.str, ptr noundef @.str.3, i32 noundef 48, ptr noundef @__func__.PTY_CHARDEV)
  ret ptr %call
}

; Function Attrs: nounwind sspstrong uwtable
define internal void @pty_chr_update_read_handler(ptr noundef %chr) #0 {
entry:
  %chr.addr = alloca ptr, align 8
  %s = alloca ptr, align 8
  %pfd = alloca %struct._GPollFD, align 4
  %rc = alloca i32, align 4
  %fioc = alloca ptr, align 8
  %__result = alloca i32, align 4
  %tmp = alloca i32, align 4
  store ptr %chr, ptr %chr.addr, align 8
  %0 = load ptr, ptr %chr.addr, align 8
  %call = call ptr @PTY_CHARDEV(ptr noundef %0)
  store ptr %call, ptr %s, align 8
  %1 = load ptr, ptr %s, align 8
  %ioc = getelementptr inbounds %struct.PtyChardev, ptr %1, i32 0, i32 1
  %2 = load ptr, ptr %ioc, align 8
  %call1 = call ptr @QIO_CHANNEL_FILE(ptr noundef %2)
  store ptr %call1, ptr %fioc, align 8
  %3 = load ptr, ptr %fioc, align 8
  %fd = getelementptr inbounds %struct.QIOChannelFile, ptr %3, i32 0, i32 1
  %4 = load i32, ptr %fd, align 8
  %fd2 = getelementptr inbounds %struct._GPollFD, ptr %pfd, i32 0, i32 0
  store i32 %4, ptr %fd2, align 4
  %events = getelementptr inbounds %struct._GPollFD, ptr %pfd, i32 0, i32 1
  store i16 4, ptr %events, align 4
  %revents = getelementptr inbounds %struct._GPollFD, ptr %pfd, i32 0, i32 2
  store i16 0, ptr %revents, align 2
  br label %do.body

do.body:                                          ; preds = %land.end, %entry
  %call3 = call i32 @g_poll(ptr noundef %pfd, i32 noundef 1, i32 noundef 0)
  store i32 %call3, ptr %__result, align 4
  br label %do.cond

do.cond:                                          ; preds = %do.body
  %5 = load i32, ptr %__result, align 4
  %cmp = icmp eq i32 %5, -1
  br i1 %cmp, label %land.rhs, label %land.end

land.rhs:                                         ; preds = %do.cond
  %call4 = call ptr @__errno_location() #6
  %6 = load i32, ptr %call4, align 4
  %cmp5 = icmp eq i32 %6, 4
  br label %land.end

land.end:                                         ; preds = %land.rhs, %do.cond
  %7 = phi i1 [ false, %do.cond ], [ %cmp5, %land.rhs ]
  br i1 %7, label %do.body, label %do.end, !llvm.loop !7

do.end:                                           ; preds = %land.end
  %8 = load i32, ptr %__result, align 4
  store i32 %8, ptr %tmp, align 4
  %9 = load i32, ptr %tmp, align 4
  store i32 %9, ptr %rc, align 4
  %10 = load i32, ptr %rc, align 4
  %cmp6 = icmp sge i32 %10, 0
  br i1 %cmp6, label %if.then, label %if.else

if.then:                                          ; preds = %do.end
  br label %if.end

if.else:                                          ; preds = %do.end
  call void @__assert_fail(ptr noundef @.str.12, ptr noundef @.str.3, i32 noundef 97, ptr noundef @__PRETTY_FUNCTION__.pty_chr_update_read_handler) #8
  unreachable

if.end:                                           ; preds = %if.then
  %revents7 = getelementptr inbounds %struct._GPollFD, ptr %pfd, i32 0, i32 2
  %11 = load i16, ptr %revents7, align 2
  %conv = zext i16 %11 to i32
  %and = and i32 %conv, 16
  %tobool = icmp ne i32 %and, 0
  br i1 %tobool, label %if.then8, label %if.else9

if.then8:                                         ; preds = %if.end
  %12 = load ptr, ptr %chr.addr, align 8
  call void @pty_chr_state(ptr noundef %12, i32 noundef 0)
  br label %if.end10

if.else9:                                         ; preds = %if.end
  %13 = load ptr, ptr %chr.addr, align 8
  call void @pty_chr_state(ptr noundef %13, i32 noundef 1)
  br label %if.end10

if.end10:                                         ; preds = %if.else9, %if.then8
  ret void
}