; Function Attrs: nounwind sspstrong uwtable
define internal void @pty_chr_update_read_handler(ptr noundef %chr) #0 {
entry:
  %pfd = alloca %struct._GPollFD, align 4
  %call.i = tail call ptr @object_dynamic_cast_assert(ptr noundef %chr, ptr noundef nonnull @.str, ptr noundef nonnull @.str.3, i32 noundef 48, ptr noundef nonnull @__func__.PTY_CHARDEV) #9
  %ioc = getelementptr inbounds nuw i8, ptr %call.i, i64 152
  %0 = load ptr, ptr %ioc, align 8
  %call.i4 = tail call ptr @object_dynamic_cast_assert(ptr noundef %0, ptr noundef nonnull @.str.13, ptr noundef nonnull @.str.14, i32 noundef 28, ptr noundef nonnull @__func__.QIO_CHANNEL_FILE) #9
  %fd = getelementptr inbounds nuw i8, ptr %call.i4, i64 96
  %1 = load i32, ptr %fd, align 8
  store i32 %1, ptr %pfd, align 4
  %events = getelementptr inbounds nuw i8, ptr %pfd, i64 4
  store i16 4, ptr %events, align 4
  %revents = getelementptr inbounds nuw i8, ptr %pfd, i64 6
  store i16 0, ptr %revents, align 2
  br label %do.body

do.body:                                          ; preds = %land.rhs, %entry
  %call3 = call i32 @g_poll(ptr noundef nonnull %pfd, i32 noundef 1, i32 noundef 0) #9
  %cmp = icmp eq i32 %call3, -1
  br i1 %cmp, label %land.rhs, label %do.end

land.rhs:                                         ; preds = %do.body
  %call4 = tail call ptr @__errno_location() #10
  %2 = load i32, ptr %call4, align 4
  %cmp5 = icmp eq i32 %2, 4
  br i1 %cmp5, label %do.body, label %if.else, !llvm.loop !7

do.end:                                           ; preds = %do.body
  %cmp6 = icmp sgt i32 %call3, -1
  br i1 %cmp6, label %if.end, label %if.else

if.else:                                          ; preds = %land.rhs, %do.end
  call void @__assert_fail(ptr noundef nonnull @.str.12, ptr noundef nonnull @.str.3, i32 noundef 97, ptr noundef nonnull @__PRETTY_FUNCTION__.pty_chr_update_read_handler) #11
  unreachable

if.end:                                           ; preds = %do.end
  %3 = load i16, ptr %revents, align 2
  %4 = and i16 %3, 16
  %tobool.not = icmp eq i16 %4, 0
  %. = zext i1 %tobool.not to i32
  call fastcc void @pty_chr_state(ptr noundef %chr, i32 noundef %.)
  ret void
}